; Function Attrs: mustprogress uwtable
define dso_local noundef i32 @_ZN4Luau20DataFlowGraphBuilder27visitBlockWithoutChildScopeEPNS_12AstStatBlockE(ptr noundef nonnull align 8 dereferenceable(336) %0, ptr noundef readonly captures(none) %1) local_unnamed_addr #2 align 2 personality ptr @__gxx_personality_v0 {
  %3 = getelementptr inbounds nuw i8, ptr %1, i64 32
  %4 = load ptr, ptr %3, align 8, !tbaa !175
  %5 = getelementptr inbounds nuw i8, ptr %1, i64 40
  %6 = load i64, ptr %5, align 8, !tbaa !178
  %7 = getelementptr inbounds nuw ptr, ptr %4, i64 %6
  %.not14 = icmp eq i64 %6, 0
  br i1 %.not14, label %._crit_edge, label %.lr.ph

._crit_edge.loopexit:                             ; preds = %.lr.ph
  %8 = trunc nuw i8 %.sroa.412.1 to i1
  %9 = select i1 %8, i32 %.sroa.011.1, i32 1
  br label %._crit_edge

._crit_edge:                                      ; preds = %._crit_edge.loopexit, %2
  %.sroa.412.0.lcssa = phi i32 [ 1, %2 ], [ %9, %._crit_edge.loopexit ]
  ret i32 %.sroa.412.0.lcssa

.lr.ph:                                           ; preds = %2, %.lr.ph
  %.017 = phi ptr [ %14, %.lr.ph ], [ %4, %2 ]
  %.sroa.412.016 = phi i8 [ %.sroa.412.1, %.lr.ph ], [ 0, %2 ]
  %.sroa.011.015 = phi i32 [ %.sroa.011.1, %.lr.ph ], [ undef, %2 ]
  %10 = load ptr, ptr %.017, align 8, !tbaa !71
  %11 = tail call noundef i32 @_ZN4Luau20DataFlowGraphBuilder5visitEPNS_7AstStatE(ptr noundef nonnull align 8 dereferenceable(336) %0, ptr noundef %10)
  %.not9 = icmp eq i32 %11, 1
  %12 = trunc nuw i8 %.sroa.412.016 to i1
  %13 = select i1 %.not9, i1 true, i1 %12
  %.sroa.011.1 = select i1 %13, i32 %.sroa.011.015, i32 %11
  %.sroa.412.1 = select i1 %.not9, i8 %.sroa.412.016, i8 1
  %14 = getelementptr inbounds nuw i8, ptr %.017, i64 8
  %.not = icmp eq ptr %14, %7
  br i1 %.not, label %._crit_edge.loopexit, label %.lr.ph
}